target datalayout = "e-m:e-p270:32:32-p271:32:32-p272:64:64-i64:64-i128:128-f80:128-n8:16:32:64-S128"
target triple = "x86_64-pc-linux-gnu"

%union.pthread_cond_t = type { %struct.__pthread_cond_s }
%struct.__pthread_cond_s = type { %union.__atomic_wide_counter, %union.__atomic_wide_counter, [2 x i32], [2 x i32], i32, i32, [2 x i32] }
%union.__atomic_wide_counter = type { i64 }
%union.pthread_mutex_t = type { %struct.__pthread_mutex_s }
%struct.__pthread_mutex_s = type { i32, i32, i32, i32, i32, i16, i16, %struct.__pthread_internal_list }
%struct.__pthread_internal_list = type { ptr, ptr }
%struct.slurmd_config = type { ptr, ptr, i32, [4096 x i8], ptr, ptr, ptr, ptr, i16, i16, i16, i16, ptr, i16, i64, i16, i16, i16, i16, i16, i16, i16, i16, i16, i16, i16, i64, i64, i32, i32, i16, ptr, ptr, ptr, i32, ptr, ptr, ptr, ptr, ptr, ptr, ptr, ptr, ptr, ptr, i32, ptr, ptr, i16, i32, i32, %struct.log_options_t, i32, i16, i64, i8, i8, i8, i8, i8, %union.pthread_mutex_t, i16, ptr, %union.pthread_cond_t, ptr, %union.pthread_cond_t, i8, i8, ptr, ptr }
%struct.log_options_t = type { i32, i32, i32, i8, i8, i8, i32 }
%struct.bitmask = type { i64, ptr }

@conf = external global ptr, align 8
@numa_array = internal global ptr null, align 8
@.str.22 = private unnamed_addr constant [7 x i8] c"numa.c\00", align 1
@__func__.slurm_get_numa_node = private unnamed_addr constant [20 x i8] c"slurm_get_numa_node\00", align 1
@.str.23 = private unnamed_addr constant [25 x i8] c"Size mismatch!!!! %d %lu\00", align 1
@.str.24 = private unnamed_addr constant [22 x i8] c"numa_node_to_cpus: %m\00", align 1

; Function Attrs: inlinehint nounwind uwtable
define internal i32 @numa_node_to_cpus_compat(i32 noundef %0, ptr noundef %1, i32 noundef %2) #4 {
  %4 = alloca i32, align 4
  %5 = alloca ptr, align 8
  %6 = alloca i32, align 4
  %7 = alloca %struct.bitmask, align 8
  store i32 %0, ptr %4, align 4
  store ptr %1, ptr %5, align 8
  store i32 %2, ptr %6, align 4
  call void @llvm.lifetime.start.p0(i64 16, ptr %7) #8
  %8 = load ptr, ptr %5, align 8
  %9 = getelementptr inbounds nuw %struct.bitmask, ptr %7, i32 0, i32 1
  store ptr %8, ptr %9, align 8
  %10 = load i32, ptr %6, align 4
  %11 = mul nsw i32 %10, 8
  %12 = sext i32 %11 to i64
  %13 = getelementptr inbounds nuw %struct.bitmask, ptr %7, i32 0, i32 0
  store i64 %12, ptr %13, align 8
  %14 = load i32, ptr %4, align 4
  %15 = call i32 @numa_node_to_cpus(i32 noundef %14, ptr noundef %7)
  call void @llvm.lifetime.end.p0(i64 16, ptr %7) #8
  ret i32 %15
}

; Function Attrs: inlinehint nounwind uwtable
define internal void @numa_free_cpumask(ptr noundef %0) #4 {
  %2 = alloca ptr, align 8
  store ptr %0, ptr %2, align 8
  %3 = load ptr, ptr %2, align 8
  call void @numa_bitmask_free(ptr noundef %3)
  ret void
}

; Function Attrs: nounwind uwtable
define dso_local zeroext i16 @slurm_get_numa_node(i16 noundef zeroext %0) #0 {
  %2 = alloca i16, align 2
  %3 = alloca i16, align 2
  %4 = alloca i16, align 2
  %5 = alloca i32, align 4
  %6 = alloca i32, align 4
  %7 = alloca i32, align 4
  %8 = alloca ptr, align 8
  %9 = alloca i32, align 4
  store i16 %0, ptr %3, align 2
  call void @llvm.lifetime.start.p0(i64 2, ptr %4) #8
  store i16 0, ptr %4, align 2
  call void @llvm.lifetime.start.p0(i64 4, ptr %5) #8
  call void @llvm.lifetime.start.p0(i64 4, ptr %6) #8
  call void @llvm.lifetime.start.p0(i64 4, ptr %7) #8
  call void @llvm.lifetime.start.p0(i64 8, ptr %8) #8
  %10 = load ptr, ptr @numa_array, align 8
  %11 = icmp ne ptr %10, null
  br i1 %11, label %12, label %18

12:                                               ; preds = %1
  %13 = load ptr, ptr @numa_array, align 8
  %14 = load i16, ptr %3, align 2
  %15 = zext i16 %14 to i64
  %16 = getelementptr inbounds nuw i16, ptr %13, i64 %15
  %17 = load i16, ptr %16, align 2
  store i16 %17, ptr %2, align 2
  store i32 1, ptr %9, align 4
  br label %114

18:                                               ; preds = %1
  %19 = load ptr, ptr @conf, align 8
  %20 = getelementptr inbounds nuw %struct.slurmd_config, ptr %19, i32 0, i32 10
  %21 = load i16, ptr %20, align 4
  %22 = zext i16 %21 to i32
  %23 = load ptr, ptr @conf, align 8
  %24 = getelementptr inbounds nuw %struct.slurmd_config, ptr %23, i32 0, i32 15
  %25 = load i16, ptr %24, align 8
  %26 = zext i16 %25 to i32
  %27 = mul nsw i32 %22, %26
  %28 = load ptr, ptr @conf, align 8
  %29 = getelementptr inbounds nuw %struct.slurmd_config, ptr %28, i32 0, i32 11
  %30 = load i16, ptr %29, align 2
  %31 = zext i16 %30 to i32
  %32 = mul nsw i32 %27, %31
  %33 = trunc i32 %32 to i16
  store i16 %33, ptr %4, align 2
  %34 = load i16, ptr %3, align 2
  %35 = zext i16 %34 to i32
  %36 = load i16, ptr %4, align 2
  %37 = zext i16 %36 to i32
  %38 = icmp sge i32 %35, %37
  br i1 %38, label %39, label %40

39:                                               ; preds = %18
  store i16 0, ptr %2, align 2
  store i32 1, ptr %9, align 4
  br label %114

40:                                               ; preds = %18
  %41 = call i32 @numa_max_node()
  store i32 %41, ptr %7, align 4
  %42 = load i16, ptr %4, align 2
  %43 = zext i16 %42 to i64
  %44 = mul i64 2, %43
  %45 = call ptr @slurm_xcalloc(i64 noundef 1, i64 noundef %44, i1 noundef zeroext true, i1 noundef zeroext false, ptr noundef @.str.22, i32 noundef 315, ptr noundef @__func__.slurm_get_numa_node)
  store ptr %45, ptr @numa_array, align 8
  %46 = call ptr @numa_allocate_cpumask()
  store ptr %46, ptr %8, align 8
  %47 = load i16, ptr %4, align 2
  %48 = zext i16 %47 to i64
  %49 = load ptr, ptr %8, align 8
  %50 = getelementptr inbounds nuw %struct.bitmask, ptr %49, i32 0, i32 0
  %51 = load i64, ptr %50, align 8
  %52 = icmp ugt i64 %48, %51
  br i1 %52, label %53, label %61

53:                                               ; preds = %40
  %54 = load i16, ptr %4, align 2
  %55 = zext i16 %54 to i32
  %56 = load ptr, ptr %8, align 8
  %57 = getelementptr inbounds nuw %struct.bitmask, ptr %56, i32 0, i32 0
  %58 = load i64, ptr %57, align 8
  %59 = call i32 (ptr, ...) @slurm_error(ptr noundef @.str.23, i32 noundef %55, i64 noundef %58)
  %60 = load ptr, ptr %8, align 8
  call void @numa_free_cpumask(ptr noundef %60)
  store i16 0, ptr %2, align 2
  store i32 1, ptr %9, align 4
  br label %114

61:                                               ; preds = %40
  store i32 0, ptr %5, align 4
  br label %62

62:                                               ; preds = %104, %61
  %63 = load i32, ptr %5, align 4
  %64 = load i32, ptr %7, align 4
  %65 = icmp sle i32 %63, %64
  br i1 %65, label %66, label %107

66:                                               ; preds = %62
  %67 = load i32, ptr %5, align 4
  %68 = load ptr, ptr %8, align 8
  %69 = getelementptr inbounds nuw %struct.bitmask, ptr %68, i32 0, i32 1
  %70 = load ptr, ptr %69, align 8
  %71 = load ptr, ptr %8, align 8
  %72 = getelementptr inbounds nuw %struct.bitmask, ptr %71, i32 0, i32 0
  %73 = load i64, ptr %72, align 8
  %74 = udiv i64 %73, 8
  %75 = trunc i64 %74 to i32
  %76 = call i32 @numa_node_to_cpus_compat(i32 noundef %67, ptr noundef %70, i32 noundef %75)
  %77 = icmp ne i32 %76, 0
  br i1 %77, label %78, label %81

78:                                               ; preds = %66
  %79 = call i32 (ptr, ...) @slurm_error(ptr noundef @.str.24)
  %80 = load ptr, ptr %8, align 8
  call void @numa_free_cpumask(ptr noundef %80)
  store i16 0, ptr %2, align 2
  store i32 1, ptr %9, align 4
  br label %114

81:                                               ; preds = %66
  store i32 0, ptr %6, align 4
  br label %82

82:                                               ; preds = %100, %81
  %83 = load i32, ptr %6, align 4
  %84 = load i16, ptr %4, align 2
  %85 = zext i16 %84 to i32
  %86 = icmp slt i32 %83, %85
  br i1 %86, label %87, label %103

87:                                               ; preds = %82
  %88 = load ptr, ptr %8, align 8
  %89 = load i32, ptr %6, align 4
  %90 = call i32 @numa_bitmask_isbitset(ptr noundef %88, i32 noundef %89)
  %91 = icmp ne i32 %90, 0
  br i1 %91, label %92, label %99

92:                                               ; preds = %87
  %93 = load i32, ptr %5, align 4
  %94 = trunc i32 %93 to i16
  %95 = load ptr, ptr @numa_array, align 8
  %96 = load i32, ptr %6, align 4
  %97 = sext i32 %96 to i64
  %98 = getelementptr inbounds i16, ptr %95, i64 %97
  store i16 %94, ptr %98, align 2
  br label %99

99:                                               ; preds = %92, %87
  br label %100

100:                                              ; preds = %99
  %101 = load i32, ptr %6, align 4
  %102 = add nsw i32 %101, 1
  store i32 %102, ptr %6, align 4
  br label %82, !llvm.loop !15

103:                                              ; preds = %82
  br label %104

104:                                              ; preds = %103
  %105 = load i32, ptr %5, align 4
  %106 = add nsw i32 %105, 1
  store i32 %106, ptr %5, align 4
  br label %62, !llvm.loop !16

107:                                              ; preds = %62
  %108 = load ptr, ptr %8, align 8
  call void @numa_free_cpumask(ptr noundef %108)
  %109 = load ptr, ptr @numa_array, align 8
  %110 = load i16, ptr %3, align 2
  %111 = zext i16 %110 to i64
  %112 = getelementptr inbounds nuw i16, ptr %109, i64 %111
  %113 = load i16, ptr %112, align 2
  store i16 %113, ptr %2, align 2
  store i32 1, ptr %9, align 4
  br label %114

114:                                              ; preds = %107, %78, %53, %39, %12
  call void @llvm.lifetime.end.p0(i64 8, ptr %8) #8
  call void @llvm.lifetime.end.p0(i64 4, ptr %7) #8
  call void @llvm.lifetime.end.p0(i64 4, ptr %6) #8
  call void @llvm.lifetime.end.p0(i64 4, ptr %5) #8
  call void @llvm.lifetime.end.p0(i64 2, ptr %4) #8
  %115 = load i16, ptr %2, align 2
  ret i16 %115
}