; Function Attrs: nounwind uwtable
define dso_local zeroext i16 @slurm_get_numa_node(i16 noundef zeroext %0) local_unnamed_addr #0 {
  %2 = alloca %struct.bitmask, align 8
  %3 = load ptr, ptr @numa_array, align 8
  %.not = icmp eq ptr %3, null
  br i1 %.not, label %8, label %4

4:                                                ; preds = %1
  %5 = zext i16 %0 to i64
  %6 = getelementptr inbounds nuw i16, ptr %3, i64 %5
  %7 = load i16, ptr %6, align 2
  br label %53

8:                                                ; preds = %1
  %9 = load ptr, ptr @conf, align 8
  %10 = getelementptr inbounds nuw i8, ptr %9, i64 4156
  %11 = load i16, ptr %10, align 4
  %12 = getelementptr inbounds nuw i8, ptr %9, i64 4184
  %13 = load i16, ptr %12, align 8
  %14 = mul i16 %13, %11
  %15 = getelementptr inbounds nuw i8, ptr %9, i64 4158
  %16 = load i16, ptr %15, align 2
  %17 = mul i16 %14, %16
  %18 = zext i16 %17 to i32
  %.not30 = icmp ult i16 %0, %17
  br i1 %.not30, label %19, label %53

19:                                               ; preds = %8
  %20 = tail call i32 @numa_max_node() #8
  %21 = zext i16 %17 to i64
  %22 = shl nuw nsw i64 %21, 1
  %23 = tail call ptr @slurm_xcalloc(i64 noundef 1, i64 noundef %22, i1 noundef zeroext true, i1 noundef zeroext false, ptr noundef nonnull @.str.22, i32 noundef 315, ptr noundef nonnull @__func__.slurm_get_numa_node) #8
  store ptr %23, ptr @numa_array, align 8
  %24 = tail call ptr @numa_allocate_cpumask() #8
  %25 = load i64, ptr %24, align 8
  %26 = icmp ult i64 %25, %21
  br i1 %26, label %29, label %.preheader34

.preheader34:                                     ; preds = %19
  %.not3136 = icmp slt i32 %20, 0
  br i1 %.not3136, label %._crit_edge, label %.lr.ph

.lr.ph:                                           ; preds = %.preheader34
  %27 = getelementptr inbounds nuw i8, ptr %24, i64 8
  %28 = getelementptr inbounds nuw i8, ptr %2, i64 8
  %wide.trip.count = zext i16 %17 to i64
  br label %31

29:                                               ; preds = %19
  %30 = tail call i32 (ptr, ...) @slurm_error(ptr noundef nonnull @.str.23, i32 noundef %18, i64 noundef %25) #8
  tail call void @numa_bitmask_free(ptr noundef nonnull %24) #8
  br label %53

31:                                               ; preds = %.lr.ph, %47
  %.02637 = phi i32 [ 0, %.lr.ph ], [ %48, %47 ]
  %32 = load ptr, ptr %27, align 8
  %33 = load i64, ptr %24, align 8
  call void @llvm.lifetime.start.p0(i64 16, ptr nonnull %2) #8
  store ptr %32, ptr %28, align 8
  %34 = shl i64 %33, 32
  %sext = ashr exact i64 %34, 32
  %35 = and i64 %sext, -8
  store i64 %35, ptr %2, align 8
  %36 = call i32 @numa_node_to_cpus(i32 noundef %.02637, ptr noundef nonnull %2) #8
  call void @llvm.lifetime.end.p0(i64 16, ptr nonnull %2) #8
  %.not32 = icmp eq i32 %36, 0
  br i1 %.not32, label %.preheader, label %38

.preheader:                                       ; preds = %31
  %37 = trunc i32 %.02637 to i16
  br label %40

38:                                               ; preds = %31
  %39 = call i32 (ptr, ...) @slurm_error(ptr noundef nonnull @.str.24) #8
  call void @numa_bitmask_free(ptr noundef nonnull %24) #8
  br label %53

40:                                               ; preds = %.preheader, %46
  %indvars.iv = phi i64 [ 0, %.preheader ], [ %indvars.iv.next, %46 ]
  %41 = trunc nuw nsw i64 %indvars.iv to i32
  %42 = call i32 @numa_bitmask_isbitset(ptr noundef nonnull %24, i32 noundef %41) #8
  %.not33 = icmp eq i32 %42, 0
  br i1 %.not33, label %46, label %43

43:                                               ; preds = %40
  %44 = load ptr, ptr @numa_array, align 8
  %45 = getelementptr inbounds nuw i16, ptr %44, i64 %indvars.iv
  store i16 %37, ptr %45, align 2
  br label %46

46:                                               ; preds = %40, %43
  %indvars.iv.next = add nuw nsw i64 %indvars.iv, 1
  %exitcond.not = icmp eq i64 %indvars.iv.next, %wide.trip.count
  br i1 %exitcond.not, label %47, label %40, !llvm.loop !15

47:                                               ; preds = %46
  %48 = add nuw i32 %.02637, 1
  %exitcond39.not = icmp eq i32 %.02637, %20
  br i1 %exitcond39.not, label %._crit_edge, label %31, !llvm.loop !16

._crit_edge:                                      ; preds = %47, %.preheader34
  call void @numa_bitmask_free(ptr noundef nonnull %24) #8
  %49 = load ptr, ptr @numa_array, align 8
  %50 = zext i16 %0 to i64
  %51 = getelementptr inbounds nuw i16, ptr %49, i64 %50
  %52 = load i16, ptr %51, align 2
  br label %53

53:                                               ; preds = %8, %._crit_edge, %38, %29, %4
  %.0 = phi i16 [ %7, %4 ], [ 0, %29 ], [ 0, %38 ], [ %52, %._crit_edge ], [ 0, %8 ]
  ret i16 %.0
}